-----BEGIN RSA PRIVATE KEY-----
Proc-Type: 4,ENCRYPTED
DEK-Info: AES-128-CBC,9C6588477B2FFFAF3D0AEAD060207D2B

/qqc8zIeLXlfxAkC37oA3Kyg9yN61FA/Gos6KqxM8BvEvZdhu9okQ2i+o3cB0K0g
kCWt8Umu0DjMptmziXqxwo4zLf56kPmgtEt6vJt0WbGhXiH41oNm8qjn3X1775z4
xlixaz862Gp5vnmZ2+zszqR5aOILkkGLkWeZDtjoeqcRScDdD69wBzaLWw6yyjSG
psz3O1a/SO0kLd+EOxbOfp5i5T78NWPridrFp/r63x1/oPkTxdEDjAF4gGEbqaKc
e9UWSfz6zBUDCocmlAYykEHpWPPrqCzgGgygTuG/7Hv3rd/gNNjcgBXSOmNEBXBw
gM9sojTeFUlCckAppSXh+kmleo+/yUpwaOyxHNvHc7nClOG3BPwX5UCHSBhDuJeM
I2d3E87KptXe4yQBMvUqZDxb9qmmQkqx0guEhxMdwW0U8rqvSJ9SOy4AKRo8OEvJ
rAVU3ZTw3PsBdruLPIABCfMWfYY3RNcCuvs6wMPFvLowTnaW23tkZKYF6iS3x2rO
lnz9viN5CrCI4lP+os2LTw8wOFJD+VxbqgI1yvnJVCOAS99aZRV/9JS6i85f6JX/
gzqzxLp1P4zsmma+cIitx18KG9+lH95vRw+M5IWuXiIpUMoNtFR7YgYbRNIquKT8
txMayftuDVP+HhH/qBOzYcAWpYxg7U44Ad0XIKpO9T+xL04Y06+jFz0PSSVG0fxA
J6JCX6c80ySVt2AC98Pe4i8Btr4pjvdguTXDBcDU4yCNXEKN0u9qN+/4DnkLn/nj
Sk+k7J9c2zPA/qTkStfGRCQqhO85J3vyfqZ3Ai+06afOnHCdZCu7C5GrKgdyBYOu
9QLHNPIlBILfpTbbz0oUlc8Rwmvq+W9ufal9IZA7aaRMt7XMnHqzWLpbGQehT4EZ
iZ++d5GlrvB/ozGnEoytJdjg3wO+SxWza3ZkSCLjeVy/JOWURNtgzXzL7JL294HO
bhr9Zsmm3ATh5eiyIB+KUeIYtE5Omna/hj3M+fp4rUDQSPksdILCSEfawDZGIcKP
Yf62O2/Dbxs/eagoCLZFFAf/V8gKBB3bgcSeKyMC+7uUbFYE4nDlUmkxnBrwC7d9
WdNWiW8XMRQJJ5Y+53eN+BmVqBcXJzHyrMN2XkTZ8rEwuz49T6m/DsrJDZqGzDRb
hYFrWoUZ4MqWabRZvlCXw38rSrwJibq2hrQZYZyCPJI722AWPuvPyKfGl+8tPtpP
e4chOJsULRA/fNKDW8W/HMVC7si4bZugk0RPsB/2gQfJJpkrNExByfEof2m1QGsI
f/vhsP8iTan8nTBTthfq8nDlRRaW1wx3jbvT2k3B2vkGv3CjOKiSd1FQKc9H2f3I
/hbZZT1/5lTxV9qLgJJQdnEfvjApNrRq1h0RwlYMc9WHXWcxSGWcgL5V/wER69j/
JiaV85/kWvX2FKDJIuN+dpVx0HsIr0Ln9dYTqyWNPAWjcsKVlgBjYJo/SQaQCQdZ
7dXBsv3gZ+rpCcdtGTHi5qe0c2CQSII6OaQfGNaP+Yq1j/LZV+/rubuflAvmf0V0
d1OGE17nLddrxWVeDaVd4cmNWmN+y5hgsMJtTiyA2gKvUbIusjMZ0rDfmgPjKpri
-----END RSA PRIVATE KEY-----
Certificate:
    Data:
        Version: 3 (0x2)
        Serial Number: 4097 (0x1001)
        Signature Algorithm: sha256WithRSAEncryption
        Issuer: C=US, ST=California, L=Pomona, O=CPP, OU=CS, CN=Darrel/emailAddress=darrelchang@cpp.edu
        Validity
            Not Before: May  8 03:29:42 2024 GMT
            Not After : May  8 03:29:42 2025 GMT
        Subject: C=US, ST=California, O=CPP, OU=CS, CN=SEEDPKILab2020.com/emailAddress=seedpki@gmail.com
        Subject Public Key Info:
            Public Key Algorithm: rsaEncryption
                RSA Public-Key: (2048 bit)
                Modulus:
                    00:a1:4a:e9:2f:a6:9f:8d:f6:bb:4b:f2:ff:a7:3b:
                    92:15:64:fd:78:c6:f9:2e:11:ae:ec:7f:25:90:1e:
                    72:b4:bf:b2:0c:06:f2:09:ba:5b:e9:a2:60:95:5a:
                    b5:09:41:c0:bf:ec:5b:a3:a6:3e:1b:8c:bf:89:44:
                    d2:63:5f:c4:0f:99:5e:4e:03:f5:e0:aa:e3:24:59:
                    6e:5d:cc:61:60:d5:d5:a7:4a:01:41:10:05:95:36:
                    11:72:8c:d6:11:bc:7b:13:36:3c:58:02:47:15:69:
                    e4:ed:b3:57:27:09:1a:67:1d:d7:a0:1e:8f:c7:54:
                    63:e0:9c:14:94:f6:20:ac:cc:b2:ee:5e:1a:2d:60:
                    16:0b:72:1e:f0:65:06:60:fa:fb:95:90:44:c7:b5:
                    c9:a6:ce:97:37:c2:db:15:fb:00:5c:c4:96:db:b7:
                    66:8c:af:72:e5:32:53:ac:35:d5:2c:c1:50:3b:3f:
                    fd:dc:87:e7:cb:2f:ae:9c:43:a7:6e:46:58:a0:41:
                    eb:06:0c:15:af:fe:57:11:e9:45:48:36:b6:cb:26:
                    ad:5b:85:20:2b:02:3b:ce:69:a8:c4:00:63:c1:15:
                    5a:0e:57:3f:3e:79:30:ec:8f:da:e2:88:2b:ab:86:
                    84:de:09:b5:7d:9b:32:78:3d:0f:6c:08:29:2a:42:
                    68:5c
                Exponent: 65537 (0x10001)
        X509v3 extensions:
            X509v3 Basic Constraints: 
                CA:FALSE
            Netscape Comment: 
                OpenSSL Generated Certificate
            X509v3 Subject Key Identifier: 
                AF:59:EE:75:35:9A:69:A7:30:0B:C5:99:D8:3B:EA:18:2C:9D:1B:B9
            X509v3 Authority Key Identifier: 
                keyid:A1:F9:04:1D:A8:0B:2F:37:F3:34:5A:F2:72:BD:5E:26:20:ED:61:F3

    Signature Algorithm: sha256WithRSAEncryption
         5e:4f:75:74:a3:00:06:95:af:35:9f:be:f6:2b:c6:f0:1c:bb:
         74:e7:0c:98:a4:79:83:e2:e9:bd:07:f9:3d:ac:46:83:5b:1d:
         00:85:c9:f4:d5:f8:87:fe:ae:17:a5:e9:2c:45:6d:4d:cd:90:
         d4:6d:34:a4:7a:f9:aa:07:77:64:23:13:59:b2:00:f4:e4:ff:
         ce:6e:b6:e0:8e:df:89:71:00:16:9b:c2:21:ad:78:49:7f:d2:
         b6:b9:94:0d:29:fe:54:4a:8d:59:c4:0a:18:04:d9:77:36:83:
         46:a0:38:c0:6a:cd:80:ef:31:e7:dd:7e:f8:c6:a5:22:b3:93:
         b5:d1:03:62:a9:c6:b4:14:45:e8:a1:46:7e:5c:f5:6a:4a:83:
         23:35:ad:52:14:bf:1d:ce:53:81:50:23:4b:4b:b3:f4:01:8a:
         20:07:7e:9c:18:1e:30:aa:2a:c0:6d:54:2f:6d:bd:bb:af:62:
         8d:f9:eb:88:da:c4:a2:96:e6:9f:f1:2a:ca:97:bb:11:ba:b2:
         25:b5:33:e7:2e:11:39:1e:6f:01:46:b9:7c:2e:ab:60:8e:19:
         8c:2d:fe:34:1a:d3:b8:9a:a6:60:3a:65:26:43:5b:ca:75:ad:
         d4:ab:60:0c:15:3a:61:a0:cb:e5:08:5a:1d:8c:a2:6c:d7:d8:
         e9:71:1e:69
-----BEGIN CERTIFICATE-----
MIID9zCCAt+gAwIBAgICEAEwDQYJKoZIhvcNAQELBQAwgYMxCzAJBgNVBAYTAlVT
MRMwEQYDVQQIDApDYWxpZm9ybmlhMQ8wDQYDVQQHDAZQb21vbmExDDAKBgNVBAoM
A0NQUDELMAkGA1UECwwCQ1MxDzANBgNVBAMMBkRhcnJlbDEiMCAGCSqGSIb3DQEJ
ARYTZGFycmVsY2hhbmdAY3BwLmVkdTAeFw0yNDA1MDgwMzI5NDJaFw0yNTA1MDgw
MzI5NDJaMHwxCzAJBgNVBAYTAlVTMRMwEQYDVQQIDApDYWxpZm9ybmlhMQwwCgYD
VQQKDANDUFAxCzAJBgNVBAsMAkNTMRswGQYDVQQDDBJTRUVEUEtJTGFiMjAyMC5j
b20xIDAeBgkqhkiG9w0BCQEWEXNlZWRwa2lAZ21haWwuY29tMIIBIjANBgkqhkiG
9w0BAQEFAAOCAQ8AMIIBCgKCAQEAoUrpL6afjfa7S/L/pzuSFWT9eMb5LhGu7H8l
kB5ytL+yDAbyCbpb6aJglVq1CUHAv+xbo6Y+G4y/iUTSY1/ED5leTgP14KrjJFlu
XcxhYNXVp0oBQRAFlTYRcozWEbx7EzY8WAJHFWnk7bNXJwkaZx3XoB6Px1Rj4JwU
lPYgrMyy7l4aLWAWC3Ie8GUGYPr7lZBEx7XJps6XN8LbFfsAXMSW27dmjK9y5TJT
rDXVLMFQOz/93Ifnyy+unEOnbkZYoEHrBgwVr/5XEelFSDa2yyatW4UgKwI7zmmo
xABjwRVaDlc/Pnkw7I/a4ogrq4aE3gm1fZsyeD0PbAgpKkJoWwIDAQABo3sweTAJ
BgNVHRMEAjAAMCwGCWCGSAGG+EIBDQQfFh1PcGVuU1NMIEdlbmVyYXRlZCBDZXJ0
aWZpY2F0ZTAdBgNVHQ4EFgQUr1nudTWaaacwC8WZ2DvqGCydG7kwHwYDVR0jBBgw
FoAUofkEHagLLzfzNFrycr1eJiDtYfMwDQYJKoZIhvcNAQELBQADggEBAF5PdXSj
AAaVrzWfvvYrxvAcu3TnDJikeYPi6b0H+T2sRoNbHQCFyfTV+If+rhel6SxFbU3N
kNRtNKR6+aoHd2QjE1myAPTk/85utuCO34lxABabwiGteEl/0ra5lA0p/lRKjVnE
ChgE2Xc2g0agOMBqzYDvMefdfvjGpSKzk7XRA2KpxrQUReihRn5c9WpKgyM1rVIU
vx3OU4FQI0tLs/QBiiAHfpwYHjCqKsBtVC9tvbuvYo3564jaxKKW5p/xKsqXuxG6
siW1M+cuETkebwFGuXwuq2COGYwt/jQa07iapmA6ZSZDW8p1rdSrYAwVOmGgy+UI
Wh2MomzX2OlxHmk=
-----END CERTIFICATE-----
