Certificate:
    Data:
        Version: 3 (0x2)
        Serial Number: 4096 (0x1000)
        Signature Algorithm: sha256WithRSAEncryption
        Issuer: C=US, ST=California, L=Pomona, O=CPP, OU=CS, CN=Darrel/emailAddress=darrelchang@cpp.edu
        Validity
            Not Before: May  6 00:54:56 2024 GMT
            Not After : May  6 00:54:56 2025 GMT
        Subject: C=US, ST=California, O=CPP, OU=CS, CN=SEEDPKILab2020.com/emailAddress=seedlab@gmail.com
        Subject Public Key Info:
            Public Key Algorithm: rsaEncryption
                RSA Public-Key: (1024 bit)
                Modulus:
                    00:ca:dd:18:1a:a7:7f:35:01:f7:ee:d2:8d:90:e7:
                    e7:09:ae:5e:ec:71:7a:ac:12:ef:4e:a8:7e:86:21:
                    93:d2:4d:37:a8:f7:76:81:0a:52:68:eb:a2:24:c4:
                    f4:55:7e:62:6b:0b:86:7d:69:69:28:2f:4e:7a:64:
                    06:59:20:8c:70:d4:3c:4a:2d:af:66:a7:e8:12:5e:
                    7f:df:89:31:12:f8:6d:1b:af:d9:3f:96:81:9b:d8:
                    c1:7d:39:c8:6f:68:74:35:76:1d:e2:72:f2:c1:c7:
                    92:e1:72:c7:30:46:24:e4:98:61:6f:1f:5d:71:35:
                    5e:07:5a:6e:7e:7e:62:72:11
                Exponent: 65537 (0x10001)
        X509v3 extensions:
            X509v3 Basic Constraints: 
                CA:FALSE
            Netscape Comment: 
                OpenSSL Generated Certificate
            X509v3 Subject Key Identifier: 
                50:F7:75:40:96:D7:01:47:F2:0F:9F:9A:99:40:33:53:16:DE:3B:2D
            X509v3 Authority Key Identifier: 
                keyid:A1:F9:04:1D:A8:0B:2F:37:F3:34:5A:F2:72:BD:5E:26:20:ED:61:F3

    Signature Algorithm: sha256WithRSAEncryption
         12:1c:e6:ea:a2:ec:ca:8b:a6:70:b1:b8:38:a2:ac:45:a9:b8:
         13:3a:7d:3c:4b:81:92:25:51:50:68:72:d9:4e:a6:06:aa:27:
         9f:f4:9e:b8:81:0b:61:98:05:34:88:6f:c8:f0:66:50:14:b9:
         3f:a2:9c:79:85:e4:67:f3:b3:37:ac:31:fe:e2:4c:b8:10:67:
         7a:e5:ef:36:39:80:7a:35:e6:bb:f1:d7:dd:3e:35:ba:51:db:
         51:a5:4f:65:d1:ce:35:ea:04:11:d5:5d:04:d6:e3:a6:a7:b1:
         7b:9e:45:86:0e:76:d6:c6:81:a4:ae:55:aa:75:c8:50:0c:df:
         39:bb:da:93:66:c4:c4:6c:64:6d:f4:64:d5:82:5d:2e:ef:92:
         28:ab:e4:de:41:70:08:87:3f:fd:49:94:b5:f6:9f:1e:de:a5:
         33:fa:30:d1:b1:f6:0f:72:01:ac:1b:02:c6:5a:84:e7:6a:81:
         4e:9a:18:1c:8b:ee:93:5d:9a:b2:d4:73:7b:c6:9c:f4:ac:be:
         40:69:8c:c8:09:bb:16:e8:4e:de:d1:fa:1f:9d:88:ec:c8:03:
         98:ff:83:90:0d:39:e4:f9:a0:27:e2:a6:05:fe:2c:0a:9c:d0:
         45:d6:bc:6f:67:e4:e9:5d:60:ee:f2:de:62:15:02:02:aa:41:
         85:a2:cd:52
-----BEGIN CERTIFICATE-----
MIIDczCCAlugAwIBAgICEAAwDQYJKoZIhvcNAQELBQAwgYMxCzAJBgNVBAYTAlVT
MRMwEQYDVQQIDApDYWxpZm9ybmlhMQ8wDQYDVQQHDAZQb21vbmExDDAKBgNVBAoM
A0NQUDELMAkGA1UECwwCQ1MxDzANBgNVBAMMBkRhcnJlbDEiMCAGCSqGSIb3DQEJ
ARYTZGFycmVsY2hhbmdAY3BwLmVkdTAeFw0yNDA1MDYwMDU0NTZaFw0yNTA1MDYw
MDU0NTZaMHwxCzAJBgNVBAYTAlVTMRMwEQYDVQQIDApDYWxpZm9ybmlhMQwwCgYD
VQQKDANDUFAxCzAJBgNVBAsMAkNTMRswGQYDVQQDDBJTRUVEUEtJTGFiMjAyMC5j
b20xIDAeBgkqhkiG9w0BCQEWEXNlZWRsYWJAZ21haWwuY29tMIGfMA0GCSqGSIb3
DQEBAQUAA4GNADCBiQKBgQDK3Rgap381Affu0o2Q5+cJrl7scXqsEu9OqH6GIZPS
TTeo93aBClJo66IkxPRVfmJrC4Z9aWkoL056ZAZZIIxw1DxKLa9mp+gSXn/fiTES
+G0br9k/loGb2MF9OchvaHQ1dh3icvLBx5LhcscwRiTkmGFvH11xNV4HWm5+fmJy
EQIDAQABo3sweTAJBgNVHRMEAjAAMCwGCWCGSAGG+EIBDQQfFh1PcGVuU1NMIEdl
bmVyYXRlZCBDZXJ0aWZpY2F0ZTAdBgNVHQ4EFgQUUPd1QJbXAUfyD5+amUAzUxbe
Oy0wHwYDVR0jBBgwFoAUofkEHagLLzfzNFrycr1eJiDtYfMwDQYJKoZIhvcNAQEL
BQADggEBABIc5uqi7MqLpnCxuDiirEWpuBM6fTxLgZIlUVBoctlOpgaqJ5/0nriB
C2GYBTSIb8jwZlAUuT+inHmF5GfzszesMf7iTLgQZ3rl7zY5gHo15rvx190+NbpR
21GlT2XRzjXqBBHVXQTW46ansXueRYYOdtbGgaSuVap1yFAM3zm72pNmxMRsZG30
ZNWCXS7vkiir5N5BcAiHP/1JlLX2nx7epTP6MNGx9g9yAawbAsZahOdqgU6aGByL
7pNdmrLUc3vGnPSsvkBpjMgJuxboTt7R+h+diOzIA5j/g5ANOeT5oCfipgX+LAqc
0EXWvG9n5OldYO7y3mIVAgKqQYWizVI=
-----END CERTIFICATE-----
